gplink-1.2.0 #980 (Jun  5 2013)
Map File - Created 6-24-2015  15:41:23

                                 Section Info
                  Section       Type    Address   Location Size(Bytes)
                ---------  ---------  ---------  ---------  ---------
         ID_interrupt_1_i    romdata   0x000003    program   0x000002
         ID_interrupt_0_i    romdata   0x0007fe    program   0x000004
                   .cinit    romdata   0x000ef6    program   0x00004c
         ID_interrupt_4_i    romdata   0x000f40    program   0x000008
         ID_interrupt_2_i    romdata   0x000f44    program   0x000004
         ID_interrupt_3_i    romdata   0x000f46    program   0x000004
             ID_idata_0_i    romdata   0x000f48    program   0x000002
                  STARTUP       code   0x000000    program   0x000006
              c_interrupt       code   0x000004    program   0x0003e6
               code_fsmul       code   0x0001f7    program   0x000702
                code_fslt       code   0x000578    program   0x00020e
            code_fs2ulong       code   0x00067f    program   0x0001d0
            code_fs2slong       code   0x000767    program   0x0000fc
               code_ports       code   0x0007e5    program   0x00001a
               code_timer       code   0x0007f2    program   0x000018
               code_fsadd       code   0x000800    program   0x000672
            code_ulong2fs       code   0x000b39    program   0x000166
            code__mullong       code   0x000bec    program   0x00015e
               code_idata       code   0x000c9b    program   0x000138
            code_slong2fs       code   0x000d37    program   0x0000ba
             code_fs2sint       code   0x000d94    program   0x00009e
                 code_pwm       code   0x000de3    program   0x000098
           code_interrupt       code   0x000e2f    program   0x00007c
                    .code       code   0x000e6d    program   0x000068
                 code_adc       code   0x000ea1    program   0x00005a
             code_sint2fs       code   0x000ece    program   0x000050
                code_main       code   0x000f1c    program   0x000048
.config_2007_BUILD/DEFAULT/PRODUCTION/MAIN.O       code   0x002007    program   0x000002
.config_2008_BUILD/DEFAULT/PRODUCTION/MAIN.O       code   0x002008    program   0x000002
           ID_interrupt_4      idata   0x00006c       data   0x000004
           ID_interrupt_0      idata   0x000125       data   0x000002
           ID_interrupt_2      idata   0x000127       data   0x000002
           ID_interrupt_3      idata   0x000129       data   0x000002
           ID_interrupt_1      idata   0x00012b       data   0x000001
               ID_idata_0      idata   0x00012d       data   0x000001
        UD_abs_pic16f88_0      udata   0x000000       data   0x000001
        UD_abs_pic16f88_1      udata   0x000001       data   0x000001
        UD_abs_pic16f88_2      udata   0x000002       data   0x000001
        UD_abs_pic16f88_3      udata   0x000003       data   0x000001
        UD_abs_pic16f88_4      udata   0x000004       data   0x000001
        UD_abs_pic16f88_5      udata   0x000005       data   0x000001
        UD_abs_pic16f88_6      udata   0x000006       data   0x000001
        UD_abs_pic16f88_a      udata   0x00000a       data   0x000001
        UD_abs_pic16f88_b      udata   0x00000b       data   0x000001
        UD_abs_pic16f88_c      udata   0x00000c       data   0x000001
        UD_abs_pic16f88_d      udata   0x00000d       data   0x000001
        UD_abs_pic16f88_e      udata   0x00000e       data   0x000001
        UD_abs_pic16f88_f      udata   0x00000f       data   0x000001
       UD_abs_pic16f88_10      udata   0x000010       data   0x000001
       UD_abs_pic16f88_11      udata   0x000011       data   0x000001
       UD_abs_pic16f88_12      udata   0x000012       data   0x000001
       UD_abs_pic16f88_13      udata   0x000013       data   0x000001
       UD_abs_pic16f88_14      udata   0x000014       data   0x000001
       UD_abs_pic16f88_15      udata   0x000015       data   0x000001
       UD_abs_pic16f88_16      udata   0x000016       data   0x000001
       UD_abs_pic16f88_17      udata   0x000017       data   0x000001
       UD_abs_pic16f88_18      udata   0x000018       data   0x000001
       UD_abs_pic16f88_19      udata   0x000019       data   0x000001
       UD_abs_pic16f88_1a      udata   0x00001a       data   0x000001
       UD_abs_pic16f88_1e      udata   0x00001e       data   0x000001
       UD_abs_pic16f88_1f      udata   0x00001f       data   0x000001
              UDL_fsadd_0      udata   0x000020       data   0x000020
              UDL_fsmul_0      udata   0x000040       data   0x00001b
           UDL__mullong_0      udata   0x00005b       data   0x000011
                sharebank      udata   0x000070       data   0x000010
       UD_abs_pic16f88_81      udata   0x000081       data   0x000001
       UD_abs_pic16f88_85      udata   0x000085       data   0x000001
       UD_abs_pic16f88_86      udata   0x000086       data   0x000001
       UD_abs_pic16f88_8c      udata   0x00008c       data   0x000001
       UD_abs_pic16f88_8d      udata   0x00008d       data   0x000001
       UD_abs_pic16f88_8e      udata   0x00008e       data   0x000001
       UD_abs_pic16f88_8f      udata   0x00008f       data   0x000001
       UD_abs_pic16f88_90      udata   0x000090       data   0x000001
       UD_abs_pic16f88_92      udata   0x000092       data   0x000001
       UD_abs_pic16f88_93      udata   0x000093       data   0x000001
       UD_abs_pic16f88_94      udata   0x000094       data   0x000001
       UD_abs_pic16f88_98      udata   0x000098       data   0x000001
       UD_abs_pic16f88_99      udata   0x000099       data   0x000001
       UD_abs_pic16f88_9b      udata   0x00009b       data   0x000001
       UD_abs_pic16f88_9c      udata   0x00009c       data   0x000001
       UD_abs_pic16f88_9d      udata   0x00009d       data   0x000001
       UD_abs_pic16f88_9e      udata   0x00009e       data   0x000001
       UD_abs_pic16f88_9f      udata   0x00009f       data   0x000001
               UDL_fslt_0      udata   0x0000a0       data   0x000011
           UDL_fs2ulong_0      udata   0x0000b1       data   0x000010
           UDL_ulong2fs_0      udata   0x0000c1       data   0x000010
              UDL_idata_0      udata   0x0000d1       data   0x00000c
           UDL_fs2slong_0      udata   0x0000dd       data   0x000008
           UDL_slong2fs_0      udata   0x0000e5       data   0x000008
                UDL_adc_0      udata   0x0000ed       data   0x000003
      UD_abs_pic16f88_105      udata   0x000105       data   0x000001
      UD_abs_pic16f88_10c      udata   0x00010c       data   0x000001
      UD_abs_pic16f88_10d      udata   0x00010d       data   0x000001
      UD_abs_pic16f88_10e      udata   0x00010e       data   0x000001
      UD_abs_pic16f88_10f      udata   0x00010f       data   0x000001
          UDL_interrupt_0      udata   0x000110       data   0x000007
            UDL_sint2fs_0      udata   0x000117       data   0x000006
                UDL_pwm_0      udata   0x00011d       data   0x000004
            UDL_fs2sint_0      udata   0x000121       data   0x000004
          UD_shadowregs_0      udata   0x00012c       data   0x000001
      UD_abs_pic16f88_18c      udata   0x00018c       data   0x000001
      UD_abs_pic16f88_18d      udata   0x00018d       data   0x000001



                              Program Memory Usage
                               Start         End
                           ---------   ---------
                            0x000000    0x000002
                            0x000f1c    0x000f3f
                            0x002007    0x002007
                            0x002008    0x002008
                            0x0007f2    0x0007fd
                            0x0007fe    0x0007ff
                            0x000003    0x000003
                            0x000f44    0x000f45
                            0x000f46    0x000f47
                            0x000f40    0x000f43
                            0x000004    0x0001f6
                            0x000e2f    0x000e6c
                            0x0007e5    0x0007f1
                            0x000ea1    0x000ecd
                            0x000de3    0x000e2e
                            0x000800    0x000b38
                            0x0001f7    0x000577
                            0x000d94    0x000de2
                            0x000767    0x0007e4
                            0x000f48    0x000f48
                            0x000c9b    0x000d36
                            0x000bec    0x000c9a
                            0x000578    0x00067e
                            0x000ece    0x000ef5
                            0x000d37    0x000d93
                            0x000e6d    0x000ea0
                            0x00067f    0x000766
                            0x000b39    0x000beb
                            0x000ef6    0x000f1b
                            3915 program addresses used



                              Symbols - Sorted by Name
                     Name    Address   Location    Storage File
                ---------  ---------  ---------  --------- ---------
         END_OF_INTERRUPT   0x0001f6    program     static build/default/production/interrupt.asm
                    PSAVE   0x000070       data     extern build/default/production/main.asm
                    SSAVE   0x000071       data     extern build/default/production/main.asm
                    STK00   0x00007f       data     extern build/default/production/main.asm
                    STK01   0x00007e       data     extern build/default/production/main.asm
                    STK02   0x00007d       data     extern build/default/production/main.asm
                    STK03   0x00007c       data     extern build/default/production/main.asm
                    STK04   0x00007b       data     extern build/default/production/main.asm
                    STK05   0x00007a       data     extern build/default/production/main.asm
                    STK06   0x000079       data     extern build/default/production/main.asm
                    STK07   0x000078       data     extern build/default/production/main.asm
                    STK08   0x000077       data     extern build/default/production/main.asm
                    STK09   0x000076       data     extern build/default/production/main.asm
                    STK10   0x000075       data     extern build/default/production/main.asm
                    STK11   0x000074       data     extern build/default/production/main.asm
                    STK12   0x000073       data     extern build/default/production/main.asm
                    WSAVE   0x000072       data     extern build/default/production/main.asm
               _00001_DS_   0x000043    program     static build/default/production/interrupt.asm
               _00001_DS_   0x000e05    program     static build/default/production/pwm.asm
               _00002_DS_   0x0000af    program     static build/default/production/interrupt.asm
               _00002_DS_   0x000e0a    program     static build/default/production/pwm.asm
               _00003_DS_   0x00014b    program     static build/default/production/interrupt.asm
               _00003_DS_   0x000e1d    program     static build/default/production/pwm.asm
               _00004_DS_   0x000150    program     static build/default/production/interrupt.asm
               _00004_DS_   0x000e22    program     static build/default/production/pwm.asm
               _00005_DS_   0x000166    program     static build/default/production/interrupt.asm
               _00006_DS_   0x00016b    program     static build/default/production/interrupt.asm
               _00007_DS_   0x0001bd    program     static build/default/production/interrupt.asm
               _00008_DS_   0x0001c0    program     static build/default/production/interrupt.asm
               _00105_DS_   0x000270    program     static fsmul.asm
               _00105_DS_   0x000cfb    program     static idata.asm
               _00105_DS_   0x0006dc    program     static fs2ulong.asm
               _00106_DS_   0x00087f    program     static fsadd.asm
               _00106_DS_   0x000278    program     static fsmul.asm
               _00106_DS_   0x000dc6    program     static fs2sint.asm
               _00106_DS_   0x00077d    program     static fs2slong.asm
               _00106_DS_   0x000635    program     static fslt.asm
               _00106_DS_   0x000d76    program     static slong2fs.asm
               _00106_DS_   0x0006e4    program     static fs2ulong.asm
               _00107_DS_   0x000f3e    program     static build/default/production/main.asm
               _00107_DS_   0x000d2c    program     static idata.asm
               _00107_DS_   0x000b54    program     static ulong2fs.asm
               _00108_DS_   0x000ec4    program     static build/default/production/adc.asm
               _00108_DS_   0x0008bd    program     static fsadd.asm
               _00108_DS_   0x000ddd    program     static fs2sint.asm
               _00108_DS_   0x0007c7    program     static fs2slong.asm
               _00108_DS_   0x000cae    program     static idata.asm
               _00108_DS_   0x000637    program     static fslt.asm
               _00108_DS_   0x000d93    program     static slong2fs.asm
               _00108_DS_   0x000766    program     static fs2ulong.asm
               _00109_DS_   0x0004b8    program     static fsmul.asm
               _00109_DS_   0x000de2    program     static fs2sint.asm
               _00109_DS_   0x000c15    program     static _mullong.asm
               _00110_DS_   0x00093c    program     static fsadd.asm
               _00110_DS_   0x0004c7    program     static fsmul.asm
               _00110_DS_   0x0007e4    program     static fs2slong.asm
               _00110_DS_   0x000d33    program     static idata.asm
               _00110_DS_   0x000b63    program     static ulong2fs.asm
               _00111_DS_   0x00067d    program     static fslt.asm
               _00112_DS_   0x000971    program     static fsadd.asm
               _00112_DS_   0x00050e    program     static fsmul.asm
               _00112_DS_   0x000c35    program     static _mullong.asm
               _00112_DS_   0x00067e    program     static fslt.asm
               _00113_DS_   0x000749    program     static fs2ulong.asm
               _00114_DS_   0x0009d1    program     static fsadd.asm
               _00114_DS_   0x000c74    program     static _mullong.asm
               _00114_DS_   0x00075d    program     static fs2ulong.asm
               _00114_DS_   0x000b9d    program     static ulong2fs.asm
               _00115_DS_   0x000500    program     static fsmul.asm
               _00115_DS_   0x000c55    program     static _mullong.asm
               _00115_DS_   0x000753    program     static fs2ulong.asm
               _00115_DS_   0x000beb    program     static ulong2fs.asm
               _00116_DS_   0x0009fb    program     static fsadd.asm
               _00116_DS_   0x000558    program     static fsmul.asm
               _00116_DS_   0x000754    program     static fs2ulong.asm
               _00117_DS_   0x000577    program     static fsmul.asm
               _00117_DS_   0x000dc0    program     static fs2sint.asm
               _00118_DS_   0x000eac    program     static build/default/production/adc.asm
               _00118_DS_   0x000a31    program     static fsadd.asm
               _00118_DS_   0x000dd7    program     static fs2sint.asm
               _00119_DS_   0x000eb0    program     static build/default/production/adc.asm
               _00119_DS_   0x000a5e    program     static fsadd.asm
               _00119_DS_   0x0004de    program     static fsmul.asm
               _00119_DS_   0x000c03    program     static _mullong.asm
               _00119_DS_   0x000b4f    program     static ulong2fs.asm
               _00120_DS_   0x0004e4    program     static fsmul.asm
               _00121_DS_   0x00051a    program     static fsmul.asm
               _00122_DS_   0x000520    program     static fsmul.asm
               _00123_DS_   0x000a84    program     static fsadd.asm
               _00124_DS_   0x000b75    program     static ulong2fs.asm
               _00125_DS_   0x000a94    program     static fsadd.asm
               _00126_DS_   0x000631    program     static fslt.asm
               _00127_DS_   0x000679    program     static fslt.asm
               _00128_DS_   0x000113    program     static build/default/production/interrupt.asm
               _00129_DS_   0x000ac5    program     static fsadd.asm
               _00130_DS_   0x000aae    program     static fsadd.asm
               _00131_DS_   0x000098    program     static build/default/production/interrupt.asm
               _00132_DS_   0x000124    program     static build/default/production/interrupt.asm
               _00132_DS_   0x000ad2    program     static fsadd.asm
               _00133_DS_   0x000b38    program     static fsadd.asm
               _00134_DS_   0x000171    program     static build/default/production/interrupt.asm
               _00136_DS_   0x000192    program     static build/default/production/interrupt.asm
               _00138_DS_   0x0001cb    program     static build/default/production/interrupt.asm
               _00141_DS_   0x0001e9    program     static build/default/production/interrupt.asm
               _00141_DS_   0x0004d1    program     static fsmul.asm
               _00164_DS_   0x00010a    program     static build/default/production/interrupt.asm
               _00165_DS_   0x00011c    program     static build/default/production/interrupt.asm
               _00179_DS_   0x00091a    program     static fsadd.asm
               _00180_DS_   0x00094f    program     static fsadd.asm
               _00181_DS_   0x000a07    program     static fsadd.asm
               _00182_DS_   0x000a19    program     static fsadd.asm
               _00183_DS_   0x000a30    program     static fsadd.asm
               _00184_DS_   0x000a26    program     static fsadd.asm
               _00185_DS_   0x000a27    program     static fsadd.asm
               _00186_DS_   0x000a41    program     static fsadd.asm
               _00187_DS_   0x000a58    program     static fsadd.asm
               _00188_DS_   0x000a4e    program     static fsadd.asm
               _00189_DS_   0x000a4f    program     static fsadd.asm
                  _ADCON0   0x00001f       data     extern pic16f88.asm
              _ADCON0bits   0x00001f       data     extern pic16f88.asm
                  _ADCON1   0x00009f       data     extern pic16f88.asm
              _ADCON1bits   0x00009f       data     extern pic16f88.asm
                  _ADRESH   0x00001e       data     extern pic16f88.asm
                  _ADRESL   0x00009e       data     extern pic16f88.asm
                   _ANSEL   0x00009b       data     extern pic16f88.asm
               _ANSELbits   0x00009b       data     extern pic16f88.asm
                 _CCP1CON   0x000017       data     extern pic16f88.asm
             _CCP1CONbits   0x000017       data     extern pic16f88.asm
                   _CCPR1   0x000015       data     extern pic16f88.asm
                  _CCPR1H   0x000016       data     extern pic16f88.asm
                  _CCPR1L   0x000015       data     extern pic16f88.asm
                   _CMCON   0x00009c       data     extern pic16f88.asm
               _CMCONbits   0x00009c       data     extern pic16f88.asm
                  _CVRCON   0x00009d       data     extern pic16f88.asm
              _CVRCONbits   0x00009d       data     extern pic16f88.asm
                   _EEADR   0x00010d       data     extern pic16f88.asm
                  _EEADRH   0x00010f       data     extern pic16f88.asm
                  _EECON1   0x00018c       data     extern pic16f88.asm
              _EECON1bits   0x00018c       data     extern pic16f88.asm
                  _EECON2   0x00018d       data     extern pic16f88.asm
                  _EEDATA   0x00010c       data     extern pic16f88.asm
                  _EEDATH   0x00010e       data     extern pic16f88.asm
                     _FSR   0x000004       data     extern pic16f88.asm
                    _INDF   0x000000       data     extern pic16f88.asm
                  _INTCON   0x00000b       data     extern pic16f88.asm
              _INTCONbits   0x00000b       data     extern pic16f88.asm
              _OPTION_REG   0x000081       data     extern pic16f88.asm
          _OPTION_REGbits   0x000081       data     extern pic16f88.asm
                  _OSCCON   0x00008f       data     extern pic16f88.asm
              _OSCCONbits   0x00008f       data     extern pic16f88.asm
                 _OSCTUNE   0x000090       data     extern pic16f88.asm
             _OSCTUNEbits   0x000090       data     extern pic16f88.asm
                     _PCL   0x000002       data     extern pic16f88.asm
                  _PCLATH   0x00000a       data     extern pic16f88.asm
                    _PCON   0x00008e       data     extern pic16f88.asm
                _PCONbits   0x00008e       data     extern pic16f88.asm
                    _PIE1   0x00008c       data     extern pic16f88.asm
                _PIE1bits   0x00008c       data     extern pic16f88.asm
                    _PIE2   0x00008d       data     extern pic16f88.asm
                _PIE2bits   0x00008d       data     extern pic16f88.asm
                    _PIR1   0x00000c       data     extern pic16f88.asm
                _PIR1bits   0x00000c       data     extern pic16f88.asm
                    _PIR2   0x00000d       data     extern pic16f88.asm
                _PIR2bits   0x00000d       data     extern pic16f88.asm
                   _PORTA   0x000005       data     extern pic16f88.asm
               _PORTAbits   0x000005       data     extern pic16f88.asm
                   _PORTB   0x000006       data     extern pic16f88.asm
               _PORTBbits   0x000006       data     extern pic16f88.asm
                     _PR2   0x000092       data     extern pic16f88.asm
                   _RCREG   0x00001a       data     extern pic16f88.asm
                   _RCSTA   0x000018       data     extern pic16f88.asm
               _RCSTAbits   0x000018       data     extern pic16f88.asm
                   _SPBRG   0x000099       data     extern pic16f88.asm
                  _SSPADD   0x000093       data     extern pic16f88.asm
                  _SSPBUF   0x000013       data     extern pic16f88.asm
                  _SSPCON   0x000014       data     extern pic16f88.asm
              _SSPCONbits   0x000014       data     extern pic16f88.asm
                 _SSPSTAT   0x000094       data     extern pic16f88.asm
             _SSPSTATbits   0x000094       data     extern pic16f88.asm
                  _STATUS   0x000003       data     extern pic16f88.asm
              _STATUSbits   0x000003       data     extern pic16f88.asm
                   _T1CON   0x000010       data     extern pic16f88.asm
               _T1CONbits   0x000010       data     extern pic16f88.asm
                   _T2CON   0x000012       data     extern pic16f88.asm
               _T2CONbits   0x000012       data     extern pic16f88.asm
                    _TMR0   0x000001       data     extern pic16f88.asm
                    _TMR1   0x00000e       data     extern pic16f88.asm
                   _TMR1H   0x00000f       data     extern pic16f88.asm
                   _TMR1L   0x00000e       data     extern pic16f88.asm
                    _TMR2   0x000011       data     extern pic16f88.asm
                   _TRISA   0x000085       data     extern pic16f88.asm
               _TRISAbits   0x000085       data     extern pic16f88.asm
                   _TRISB   0x000086       data     extern pic16f88.asm
               _TRISBbits   0x000086       data     extern pic16f88.asm
                   _TXREG   0x000019       data     extern pic16f88.asm
                   _TXSTA   0x000098       data     extern pic16f88.asm
               _TXSTAbits   0x000098       data     extern pic16f88.asm
                  _WDTCON   0x000105       data     extern pic16f88.asm
              _WDTCONbits   0x000105       data     extern pic16f88.asm
               ___fs2sint   0x000d94    program     extern fs2sint.asm
              ___fs2slong   0x000767    program     extern fs2slong.asm
              ___fs2ulong   0x00067f    program     extern fs2ulong.asm
     ___fs2ulong_fl1_1_22   0x0000bd       data     static fs2ulong.asm
                 ___fsadd   0x000800    program     extern fsadd.asm
        ___fsadd_fl1_1_22   0x000038       data     static fsadd.asm
        ___fsadd_fl2_1_22   0x00003c       data     static fsadd.asm
                  ___fslt   0x000578    program     extern fslt.asm
         ___fslt_fl1_1_22   0x0000a9       data     static fslt.asm
         ___fslt_fl2_1_22   0x0000ad       data     static fslt.asm
                 ___fsmul   0x0001f7    program     extern fsmul.asm
        ___fsmul_fl1_1_22   0x000053       data     static fsmul.asm
        ___fsmul_fl2_1_22   0x000057       data     static fsmul.asm
                   ___isr   0x000004    program     extern build/default/production/interrupt.asm
        ___sdcc_saved_fsr   0x00012c       data     extern shadowregs.asm
               ___sint2fs   0x000ece    program     extern sint2fs.asm
              ___slong2fs   0x000d37    program     extern slong2fs.asm
              ___ulong2fs   0x000b39    program     extern ulong2fs.asm
      ___ulong2fs_fl_1_22   0x0000cd       data     static ulong2fs.asm
            __codeptrget1   0x000e7b    program     extern /home/sdcc-builder/build/sdcc-build/orig/sdcc/device/lib/pic14/libsdcc/regular/_gptrget1.S
            __codeptrget2   0x000e92    program     static /home/sdcc-builder/build/sdcc-build/orig/sdcc/device/lib/pic14/libsdcc/regular/_gptrget2.S
            __dataptrget1   0x000e74    program     static /home/sdcc-builder/build/sdcc-build/orig/sdcc/device/lib/pic14/libsdcc/regular/_gptrget1.S
            __dataptrget2   0x000e88    program     static /home/sdcc-builder/build/sdcc-build/orig/sdcc/device/lib/pic14/libsdcc/regular/_gptrget2.S
                __gptrget   0x000e6d    program     extern /home/sdcc-builder/build/sdcc-build/orig/sdcc/device/lib/pic14/libsdcc/regular/_gptrget1.S
               __gptrget1   0x000e6d    program     extern /home/sdcc-builder/build/sdcc-build/orig/sdcc/device/lib/pic14/libsdcc/regular/_gptrget1.S
               __gptrget2   0x000e80    program     extern /home/sdcc-builder/build/sdcc-build/orig/sdcc/device/lib/pic14/libsdcc/regular/_gptrget2.S
                __mullong   0x000bec    program     extern _mullong.asm
    __sdcc_gsinit_startup   0x000c9b    program     extern idata.asm
         __sdcc_interrupt   0x000004    program     static build/default/production/interrupt.asm
               _adc_canal   0x00012b       data     static build/default/production/interrupt.asm
                _adc_init   0x000eb5    program     extern build/default/production/adc.asm
              _adc_result   0x000127       data     static build/default/production/interrupt.asm
               _adc_start   0x000ea1    program     extern build/default/production/adc.asm
        _c_interrupt_004A   0x00004a    program     static build/default/production/interrupt.asm
        _c_interrupt_0064   0x000064    program     static build/default/production/interrupt.asm
        _c_interrupt_007F   0x00007f    program     static build/default/production/interrupt.asm
        _c_interrupt_0091   0x000091    program     static build/default/production/interrupt.asm
        _c_interrupt_00B6   0x0000b6    program     static build/default/production/interrupt.asm
        _c_interrupt_00D0   0x0000d0    program     static build/default/production/interrupt.asm
        _c_interrupt_00EB   0x0000eb    program     static build/default/production/interrupt.asm
        _c_interrupt_00FD   0x0000fd    program     static build/default/production/interrupt.asm
        _c_interrupt_0170   0x000170    program     static build/default/production/interrupt.asm
                  _ciclos   0x000125       data     static build/default/production/interrupt.asm
                   _cinit   0x000ef6    program     extern 
       _code_fs2sint_0012   0x000da6    program     static fs2sint.asm
      _code_fs2slong_002A   0x000791    program     static fs2slong.asm
      _code_fs2slong_0042   0x0007a9    program     static fs2slong.asm
      _code_fs2slong_006C   0x0007d3    program     static fs2slong.asm
         _code_fsmul_01D0   0x0003c7    program     static fsmul.asm
         _code_fsmul_0224   0x00041b    program     static fsmul.asm
         _code_fsmul_028A   0x000481    program     static fsmul.asm
         _code_idata_0008   0x000ca3    program     static idata.asm
         _code_idata_0030   0x000ccb    program     static idata.asm
         _code_idata_003F   0x000cda    program     static idata.asm
         _code_idata_0057   0x000cf2    program     static idata.asm
         _code_idata_0076   0x000d11    program     static idata.asm
          _code_main_0006   0x000f22    program     static build/default/production/main.asm
          _code_main_0009   0x000f25    program     static build/default/production/main.asm
          _code_main_000C   0x000f28    program     static build/default/production/main.asm
          _code_main_000F   0x000f2b    program     static build/default/production/main.asm
          _code_main_0012   0x000f2e    program     static build/default/production/main.asm
          _code_main_0015   0x000f31    program     static build/default/production/main.asm
          _code_main_0018   0x000f34    program     static build/default/production/main.asm
          _code_main_001B   0x000f37    program     static build/default/production/main.asm
          _code_main_001E   0x000f3a    program     static build/default/production/main.asm
          _code_main_0021   0x000f3d    program     static build/default/production/main.asm
       _code_sint2fs_0016   0x000ee4    program     static sint2fs.asm
      _code_slong2fs_0027   0x000d5e    program     static slong2fs.asm
      _code_slong2fs_004B   0x000d82    program     static slong2fs.asm
                   _delay   0x000ec0    program     extern build/default/production/adc.asm
             _force_cinit   0x00012d       data     static idata.asm
    _interrupt_adc_enable   0x000e46    program     extern build/default/production/interrupt.asm
_interrupt_external_enable   0x000e55    program     extern build/default/production/interrupt.asm
 _interrupt_global_enable   0x000e2f    program     extern build/default/production/interrupt.asm
_interrupt_peripheral_enable   0x000e33    program     extern build/default/production/interrupt.asm
  _interrupt_timer_enable   0x000e37    program     extern build/default/production/interrupt.asm
                    _main   0x000f1c    program     extern build/default/production/main.asm
              _ports_init   0x0007e5    program     extern build/default/production/ports.asm
               _pwm_float   0x00006c       data     static build/default/production/interrupt.asm
                _pwm_init   0x000e23    program     extern build/default/production/pwm.asm
              _pwm_output   0x000de3    program     extern build/default/production/pwm.asm
               _pwm_valor   0x000129       data     static build/default/production/interrupt.asm
              _timer_init   0x0007f6    program     extern build/default/production/timer.asm
             _timer_start   0x0007f2    program     extern build/default/production/timer.asm
                  r0x1000   0x0000ed       data     static build/default/production/adc.asm
                  r0x1000   0x00011e       data     static build/default/production/pwm.asm
                  r0x1000   0x000124       data     static fs2sint.asm
                  r0x1000   0x0000e0       data     static fs2slong.asm
                  r0x1000   0x0000d2       data     static idata.asm
                  r0x1000   0x00005e       data     static _mullong.asm
                  r0x1000   0x000118       data     static sint2fs.asm
                  r0x1000   0x0000e8       data     static slong2fs.asm
                  r0x1001   0x0000ee       data     static build/default/production/adc.asm
                  r0x1001   0x00011d       data     static build/default/production/pwm.asm
                  r0x1001   0x000123       data     static fs2sint.asm
                  r0x1001   0x0000df       data     static fs2slong.asm
                  r0x1001   0x0000d1       data     static idata.asm
                  r0x1001   0x00005d       data     static _mullong.asm
                  r0x1001   0x000117       data     static sint2fs.asm
                  r0x1001   0x0000e7       data     static slong2fs.asm
                  r0x1002   0x0000ef       data     static build/default/production/adc.asm
                  r0x1002   0x000120       data     static build/default/production/pwm.asm
                  r0x1002   0x000122       data     static fs2sint.asm
                  r0x1002   0x0000de       data     static fs2slong.asm
                  r0x1002   0x0000d3       data     static idata.asm
                  r0x1002   0x00005c       data     static _mullong.asm
                  r0x1002   0x000119       data     static sint2fs.asm
                  r0x1002   0x0000e6       data     static slong2fs.asm
                  r0x1003   0x00011f       data     static build/default/production/pwm.asm
                  r0x1003   0x000121       data     static fs2sint.asm
                  r0x1003   0x0000dd       data     static fs2slong.asm
                  r0x1003   0x0000d4       data     static idata.asm
                  r0x1003   0x00005b       data     static _mullong.asm
                  r0x1003   0x00011a       data     static sint2fs.asm
                  r0x1003   0x0000e5       data     static slong2fs.asm
                  r0x1004   0x0000e1       data     static fs2slong.asm
                  r0x1004   0x0000d5       data     static idata.asm
                  r0x1004   0x000062       data     static _mullong.asm
                  r0x1004   0x00011c       data     static sint2fs.asm
                  r0x1004   0x0000e9       data     static slong2fs.asm
                  r0x1004   0x0000b4       data     static fs2ulong.asm
                  r0x1004   0x0000c4       data     static ulong2fs.asm
                  r0x1005   0x0000e4       data     static fs2slong.asm
                  r0x1005   0x0000d6       data     static idata.asm
                  r0x1005   0x000061       data     static _mullong.asm
                  r0x1005   0x00011b       data     static sint2fs.asm
                  r0x1005   0x0000ea       data     static slong2fs.asm
                  r0x1005   0x0000b3       data     static fs2ulong.asm
                  r0x1005   0x0000c3       data     static ulong2fs.asm
                  r0x1006   0x0000e3       data     static fs2slong.asm
                  r0x1006   0x0000d8       data     static idata.asm
                  r0x1006   0x000060       data     static _mullong.asm
                  r0x1006   0x0000eb       data     static slong2fs.asm
                  r0x1006   0x0000b2       data     static fs2ulong.asm
                  r0x1006   0x0000c2       data     static ulong2fs.asm
                  r0x1007   0x0000e2       data     static fs2slong.asm
                  r0x1007   0x0000d7       data     static idata.asm
                  r0x1007   0x00005f       data     static _mullong.asm
                  r0x1007   0x0000ec       data     static slong2fs.asm
                  r0x1007   0x0000b1       data     static fs2ulong.asm
                  r0x1007   0x0000c1       data     static ulong2fs.asm
                  r0x1008   0x000112       data     static build/default/production/interrupt.asm
                  r0x1008   0x000023       data     static fsadd.asm
                  r0x1008   0x000043       data     static fsmul.asm
                  r0x1008   0x0000da       data     static idata.asm
                  r0x1008   0x000063       data     static _mullong.asm
                  r0x1008   0x0000a3       data     static fslt.asm
                  r0x1008   0x0000b5       data     static fs2ulong.asm
                  r0x1008   0x0000c5       data     static ulong2fs.asm
                  r0x1009   0x000111       data     static build/default/production/interrupt.asm
                  r0x1009   0x000022       data     static fsadd.asm
                  r0x1009   0x000042       data     static fsmul.asm
                  r0x1009   0x0000d9       data     static idata.asm
                  r0x1009   0x000064       data     static _mullong.asm
                  r0x1009   0x0000a2       data     static fslt.asm
                  r0x1009   0x0000b6       data     static fs2ulong.asm
                  r0x1009   0x0000c6       data     static ulong2fs.asm
                  r0x100A   0x000110       data     static build/default/production/interrupt.asm
                  r0x100A   0x000021       data     static fsadd.asm
                  r0x100A   0x000041       data     static fsmul.asm
                  r0x100A   0x0000dc       data     static idata.asm
                  r0x100A   0x000065       data     static _mullong.asm
                  r0x100A   0x0000a1       data     static fslt.asm
                  r0x100A   0x0000b7       data     static fs2ulong.asm
                  r0x100A   0x0000c7       data     static ulong2fs.asm
                  r0x100B   0x000113       data     static build/default/production/interrupt.asm
                  r0x100B   0x000020       data     static fsadd.asm
                  r0x100B   0x000040       data     static fsmul.asm
                  r0x100B   0x0000db       data     static idata.asm
                  r0x100B   0x000066       data     static _mullong.asm
                  r0x100B   0x0000a0       data     static fslt.asm
                  r0x100B   0x0000b8       data     static fs2ulong.asm
                  r0x100B   0x0000c8       data     static ulong2fs.asm
                  r0x100C   0x000114       data     static build/default/production/interrupt.asm
                  r0x100C   0x000027       data     static fsadd.asm
                  r0x100C   0x000047       data     static fsmul.asm
                  r0x100C   0x000067       data     static _mullong.asm
                  r0x100C   0x0000a7       data     static fslt.asm
                  r0x100C   0x0000b9       data     static fs2ulong.asm
                  r0x100C   0x0000c9       data     static ulong2fs.asm
                  r0x100D   0x000116       data     static build/default/production/interrupt.asm
                  r0x100D   0x000026       data     static fsadd.asm
                  r0x100D   0x000046       data     static fsmul.asm
                  r0x100D   0x000068       data     static _mullong.asm
                  r0x100D   0x0000a6       data     static fslt.asm
                  r0x100D   0x0000ba       data     static fs2ulong.asm
                  r0x100D   0x0000ca       data     static ulong2fs.asm
                  r0x100E   0x000115       data     static build/default/production/interrupt.asm
                  r0x100E   0x000025       data     static fsadd.asm
                  r0x100E   0x000045       data     static fsmul.asm
                  r0x100E   0x000069       data     static _mullong.asm
                  r0x100E   0x0000a5       data     static fslt.asm
                  r0x100E   0x0000bb       data     static fs2ulong.asm
                  r0x100E   0x0000cb       data     static ulong2fs.asm
                  r0x100F   0x000024       data     static fsadd.asm
                  r0x100F   0x000044       data     static fsmul.asm
                  r0x100F   0x00006a       data     static _mullong.asm
                  r0x100F   0x0000a4       data     static fslt.asm
                  r0x100F   0x0000bc       data     static fs2ulong.asm
                  r0x100F   0x0000cc       data     static ulong2fs.asm
                  r0x1010   0x000028       data     static fsadd.asm
                  r0x1010   0x000048       data     static fsmul.asm
                  r0x1010   0x00006b       data     static _mullong.asm
                  r0x1010   0x0000a8       data     static fslt.asm
                  r0x1011   0x000029       data     static fsadd.asm
                  r0x1011   0x000049       data     static fsmul.asm
                  r0x1012   0x00002a       data     static fsadd.asm
                  r0x1012   0x00004a       data     static fsmul.asm
                  r0x1013   0x00002b       data     static fsadd.asm
                  r0x1013   0x00004b       data     static fsmul.asm
                  r0x1014   0x00002c       data     static fsadd.asm
                  r0x1014   0x00004c       data     static fsmul.asm
                  r0x1015   0x00002d       data     static fsadd.asm
                  r0x1015   0x00004d       data     static fsmul.asm
                  r0x1016   0x00002e       data     static fsadd.asm
                  r0x1016   0x00004e       data     static fsmul.asm
                  r0x1017   0x00002f       data     static fsadd.asm
                  r0x1017   0x00004f       data     static fsmul.asm
                  r0x1018   0x000030       data     static fsadd.asm
                  r0x1018   0x000050       data     static fsmul.asm
                  r0x1019   0x000031       data     static fsadd.asm
                  r0x1019   0x000051       data     static fsmul.asm
                  r0x101A   0x000032       data     static fsadd.asm
                  r0x101A   0x000052       data     static fsmul.asm
                  r0x101B   0x000033       data     static fsadd.asm
                  r0x101C   0x000034       data     static fsadd.asm
                  r0x101D   0x000035       data     static fsadd.asm
                  r0x101E   0x000036       data     static fsadd.asm
                  r0x101F   0x000037       data     static fsadd.asm



                              Symbols - Sorted by Address
                     Name    Address   Location    Storage File
                ---------  ---------  ---------  --------- ---------
                    _INDF   0x000000       data     extern pic16f88.asm
                    _TMR0   0x000001       data     extern pic16f88.asm
                     _PCL   0x000002       data     extern pic16f88.asm
                  _STATUS   0x000003       data     extern pic16f88.asm
              _STATUSbits   0x000003       data     extern pic16f88.asm
                     _FSR   0x000004       data     extern pic16f88.asm
                   ___isr   0x000004    program     extern build/default/production/interrupt.asm
         __sdcc_interrupt   0x000004    program     static build/default/production/interrupt.asm
                   _PORTA   0x000005       data     extern pic16f88.asm
               _PORTAbits   0x000005       data     extern pic16f88.asm
                   _PORTB   0x000006       data     extern pic16f88.asm
               _PORTBbits   0x000006       data     extern pic16f88.asm
                  _PCLATH   0x00000a       data     extern pic16f88.asm
                  _INTCON   0x00000b       data     extern pic16f88.asm
              _INTCONbits   0x00000b       data     extern pic16f88.asm
                    _PIR1   0x00000c       data     extern pic16f88.asm
                _PIR1bits   0x00000c       data     extern pic16f88.asm
                    _PIR2   0x00000d       data     extern pic16f88.asm
                _PIR2bits   0x00000d       data     extern pic16f88.asm
                    _TMR1   0x00000e       data     extern pic16f88.asm
                   _TMR1L   0x00000e       data     extern pic16f88.asm
                   _TMR1H   0x00000f       data     extern pic16f88.asm
                   _T1CON   0x000010       data     extern pic16f88.asm
               _T1CONbits   0x000010       data     extern pic16f88.asm
                    _TMR2   0x000011       data     extern pic16f88.asm
                   _T2CON   0x000012       data     extern pic16f88.asm
               _T2CONbits   0x000012       data     extern pic16f88.asm
                  _SSPBUF   0x000013       data     extern pic16f88.asm
                  _SSPCON   0x000014       data     extern pic16f88.asm
              _SSPCONbits   0x000014       data     extern pic16f88.asm
                   _CCPR1   0x000015       data     extern pic16f88.asm
                  _CCPR1L   0x000015       data     extern pic16f88.asm
                  _CCPR1H   0x000016       data     extern pic16f88.asm
                 _CCP1CON   0x000017       data     extern pic16f88.asm
             _CCP1CONbits   0x000017       data     extern pic16f88.asm
                   _RCSTA   0x000018       data     extern pic16f88.asm
               _RCSTAbits   0x000018       data     extern pic16f88.asm
                   _TXREG   0x000019       data     extern pic16f88.asm
                   _RCREG   0x00001a       data     extern pic16f88.asm
                  _ADRESH   0x00001e       data     extern pic16f88.asm
                  _ADCON0   0x00001f       data     extern pic16f88.asm
              _ADCON0bits   0x00001f       data     extern pic16f88.asm
                  r0x100B   0x000020       data     static fsadd.asm
                  r0x100A   0x000021       data     static fsadd.asm
                  r0x1009   0x000022       data     static fsadd.asm
                  r0x1008   0x000023       data     static fsadd.asm
                  r0x100F   0x000024       data     static fsadd.asm
                  r0x100E   0x000025       data     static fsadd.asm
                  r0x100D   0x000026       data     static fsadd.asm
                  r0x100C   0x000027       data     static fsadd.asm
                  r0x1010   0x000028       data     static fsadd.asm
                  r0x1011   0x000029       data     static fsadd.asm
                  r0x1012   0x00002a       data     static fsadd.asm
                  r0x1013   0x00002b       data     static fsadd.asm
                  r0x1014   0x00002c       data     static fsadd.asm
                  r0x1015   0x00002d       data     static fsadd.asm
                  r0x1016   0x00002e       data     static fsadd.asm
                  r0x1017   0x00002f       data     static fsadd.asm
                  r0x1018   0x000030       data     static fsadd.asm
                  r0x1019   0x000031       data     static fsadd.asm
                  r0x101A   0x000032       data     static fsadd.asm
                  r0x101B   0x000033       data     static fsadd.asm
                  r0x101C   0x000034       data     static fsadd.asm
                  r0x101D   0x000035       data     static fsadd.asm
                  r0x101E   0x000036       data     static fsadd.asm
                  r0x101F   0x000037       data     static fsadd.asm
        ___fsadd_fl1_1_22   0x000038       data     static fsadd.asm
        ___fsadd_fl2_1_22   0x00003c       data     static fsadd.asm
                  r0x100B   0x000040       data     static fsmul.asm
                  r0x100A   0x000041       data     static fsmul.asm
                  r0x1009   0x000042       data     static fsmul.asm
               _00001_DS_   0x000043    program     static build/default/production/interrupt.asm
                  r0x1008   0x000043       data     static fsmul.asm
                  r0x100F   0x000044       data     static fsmul.asm
                  r0x100E   0x000045       data     static fsmul.asm
                  r0x100D   0x000046       data     static fsmul.asm
                  r0x100C   0x000047       data     static fsmul.asm
                  r0x1010   0x000048       data     static fsmul.asm
                  r0x1011   0x000049       data     static fsmul.asm
        _c_interrupt_004A   0x00004a    program     static build/default/production/interrupt.asm
                  r0x1012   0x00004a       data     static fsmul.asm
                  r0x1013   0x00004b       data     static fsmul.asm
                  r0x1014   0x00004c       data     static fsmul.asm
                  r0x1015   0x00004d       data     static fsmul.asm
                  r0x1016   0x00004e       data     static fsmul.asm
                  r0x1017   0x00004f       data     static fsmul.asm
                  r0x1018   0x000050       data     static fsmul.asm
                  r0x1019   0x000051       data     static fsmul.asm
                  r0x101A   0x000052       data     static fsmul.asm
        ___fsmul_fl1_1_22   0x000053       data     static fsmul.asm
        ___fsmul_fl2_1_22   0x000057       data     static fsmul.asm
                  r0x1003   0x00005b       data     static _mullong.asm
                  r0x1002   0x00005c       data     static _mullong.asm
                  r0x1001   0x00005d       data     static _mullong.asm
                  r0x1000   0x00005e       data     static _mullong.asm
                  r0x1007   0x00005f       data     static _mullong.asm
                  r0x1006   0x000060       data     static _mullong.asm
                  r0x1005   0x000061       data     static _mullong.asm
                  r0x1004   0x000062       data     static _mullong.asm
                  r0x1008   0x000063       data     static _mullong.asm
        _c_interrupt_0064   0x000064    program     static build/default/production/interrupt.asm
                  r0x1009   0x000064       data     static _mullong.asm
                  r0x100A   0x000065       data     static _mullong.asm
                  r0x100B   0x000066       data     static _mullong.asm
                  r0x100C   0x000067       data     static _mullong.asm
                  r0x100D   0x000068       data     static _mullong.asm
                  r0x100E   0x000069       data     static _mullong.asm
                  r0x100F   0x00006a       data     static _mullong.asm
                  r0x1010   0x00006b       data     static _mullong.asm
               _pwm_float   0x00006c       data     static build/default/production/interrupt.asm
                    PSAVE   0x000070       data     extern build/default/production/main.asm
                    SSAVE   0x000071       data     extern build/default/production/main.asm
                    WSAVE   0x000072       data     extern build/default/production/main.asm
                    STK12   0x000073       data     extern build/default/production/main.asm
                    STK11   0x000074       data     extern build/default/production/main.asm
                    STK10   0x000075       data     extern build/default/production/main.asm
                    STK09   0x000076       data     extern build/default/production/main.asm
                    STK08   0x000077       data     extern build/default/production/main.asm
                    STK07   0x000078       data     extern build/default/production/main.asm
                    STK06   0x000079       data     extern build/default/production/main.asm
                    STK05   0x00007a       data     extern build/default/production/main.asm
                    STK04   0x00007b       data     extern build/default/production/main.asm
                    STK03   0x00007c       data     extern build/default/production/main.asm
                    STK02   0x00007d       data     extern build/default/production/main.asm
                    STK01   0x00007e       data     extern build/default/production/main.asm
                    STK00   0x00007f       data     extern build/default/production/main.asm
        _c_interrupt_007F   0x00007f    program     static build/default/production/interrupt.asm
              _OPTION_REG   0x000081       data     extern pic16f88.asm
          _OPTION_REGbits   0x000081       data     extern pic16f88.asm
                   _TRISA   0x000085       data     extern pic16f88.asm
               _TRISAbits   0x000085       data     extern pic16f88.asm
                   _TRISB   0x000086       data     extern pic16f88.asm
               _TRISBbits   0x000086       data     extern pic16f88.asm
                    _PIE1   0x00008c       data     extern pic16f88.asm
                _PIE1bits   0x00008c       data     extern pic16f88.asm
                    _PIE2   0x00008d       data     extern pic16f88.asm
                _PIE2bits   0x00008d       data     extern pic16f88.asm
                    _PCON   0x00008e       data     extern pic16f88.asm
                _PCONbits   0x00008e       data     extern pic16f88.asm
                  _OSCCON   0x00008f       data     extern pic16f88.asm
              _OSCCONbits   0x00008f       data     extern pic16f88.asm
                 _OSCTUNE   0x000090       data     extern pic16f88.asm
             _OSCTUNEbits   0x000090       data     extern pic16f88.asm
        _c_interrupt_0091   0x000091    program     static build/default/production/interrupt.asm
                     _PR2   0x000092       data     extern pic16f88.asm
                  _SSPADD   0x000093       data     extern pic16f88.asm
                 _SSPSTAT   0x000094       data     extern pic16f88.asm
             _SSPSTATbits   0x000094       data     extern pic16f88.asm
               _00131_DS_   0x000098    program     static build/default/production/interrupt.asm
                   _TXSTA   0x000098       data     extern pic16f88.asm
               _TXSTAbits   0x000098       data     extern pic16f88.asm
                   _SPBRG   0x000099       data     extern pic16f88.asm
                   _ANSEL   0x00009b       data     extern pic16f88.asm
               _ANSELbits   0x00009b       data     extern pic16f88.asm
                   _CMCON   0x00009c       data     extern pic16f88.asm
               _CMCONbits   0x00009c       data     extern pic16f88.asm
                  _CVRCON   0x00009d       data     extern pic16f88.asm
              _CVRCONbits   0x00009d       data     extern pic16f88.asm
                  _ADRESL   0x00009e       data     extern pic16f88.asm
                  _ADCON1   0x00009f       data     extern pic16f88.asm
              _ADCON1bits   0x00009f       data     extern pic16f88.asm
                  r0x100B   0x0000a0       data     static fslt.asm
                  r0x100A   0x0000a1       data     static fslt.asm
                  r0x1009   0x0000a2       data     static fslt.asm
                  r0x1008   0x0000a3       data     static fslt.asm
                  r0x100F   0x0000a4       data     static fslt.asm
                  r0x100E   0x0000a5       data     static fslt.asm
                  r0x100D   0x0000a6       data     static fslt.asm
                  r0x100C   0x0000a7       data     static fslt.asm
                  r0x1010   0x0000a8       data     static fslt.asm
         ___fslt_fl1_1_22   0x0000a9       data     static fslt.asm
         ___fslt_fl2_1_22   0x0000ad       data     static fslt.asm
               _00002_DS_   0x0000af    program     static build/default/production/interrupt.asm
                  r0x1007   0x0000b1       data     static fs2ulong.asm
                  r0x1006   0x0000b2       data     static fs2ulong.asm
                  r0x1005   0x0000b3       data     static fs2ulong.asm
                  r0x1004   0x0000b4       data     static fs2ulong.asm
                  r0x1008   0x0000b5       data     static fs2ulong.asm
        _c_interrupt_00B6   0x0000b6    program     static build/default/production/interrupt.asm
                  r0x1009   0x0000b6       data     static fs2ulong.asm
                  r0x100A   0x0000b7       data     static fs2ulong.asm
                  r0x100B   0x0000b8       data     static fs2ulong.asm
                  r0x100C   0x0000b9       data     static fs2ulong.asm
                  r0x100D   0x0000ba       data     static fs2ulong.asm
                  r0x100E   0x0000bb       data     static fs2ulong.asm
                  r0x100F   0x0000bc       data     static fs2ulong.asm
     ___fs2ulong_fl1_1_22   0x0000bd       data     static fs2ulong.asm
                  r0x1007   0x0000c1       data     static ulong2fs.asm
                  r0x1006   0x0000c2       data     static ulong2fs.asm
                  r0x1005   0x0000c3       data     static ulong2fs.asm
                  r0x1004   0x0000c4       data     static ulong2fs.asm
                  r0x1008   0x0000c5       data     static ulong2fs.asm
                  r0x1009   0x0000c6       data     static ulong2fs.asm
                  r0x100A   0x0000c7       data     static ulong2fs.asm
                  r0x100B   0x0000c8       data     static ulong2fs.asm
                  r0x100C   0x0000c9       data     static ulong2fs.asm
                  r0x100D   0x0000ca       data     static ulong2fs.asm
                  r0x100E   0x0000cb       data     static ulong2fs.asm
                  r0x100F   0x0000cc       data     static ulong2fs.asm
      ___ulong2fs_fl_1_22   0x0000cd       data     static ulong2fs.asm
        _c_interrupt_00D0   0x0000d0    program     static build/default/production/interrupt.asm
                  r0x1001   0x0000d1       data     static idata.asm
                  r0x1000   0x0000d2       data     static idata.asm
                  r0x1002   0x0000d3       data     static idata.asm
                  r0x1003   0x0000d4       data     static idata.asm
                  r0x1004   0x0000d5       data     static idata.asm
                  r0x1005   0x0000d6       data     static idata.asm
                  r0x1007   0x0000d7       data     static idata.asm
                  r0x1006   0x0000d8       data     static idata.asm
                  r0x1009   0x0000d9       data     static idata.asm
                  r0x1008   0x0000da       data     static idata.asm
                  r0x100B   0x0000db       data     static idata.asm
                  r0x100A   0x0000dc       data     static idata.asm
                  r0x1003   0x0000dd       data     static fs2slong.asm
                  r0x1002   0x0000de       data     static fs2slong.asm
                  r0x1001   0x0000df       data     static fs2slong.asm
                  r0x1000   0x0000e0       data     static fs2slong.asm
                  r0x1004   0x0000e1       data     static fs2slong.asm
                  r0x1007   0x0000e2       data     static fs2slong.asm
                  r0x1006   0x0000e3       data     static fs2slong.asm
                  r0x1005   0x0000e4       data     static fs2slong.asm
                  r0x1003   0x0000e5       data     static slong2fs.asm
                  r0x1002   0x0000e6       data     static slong2fs.asm
                  r0x1001   0x0000e7       data     static slong2fs.asm
                  r0x1000   0x0000e8       data     static slong2fs.asm
                  r0x1004   0x0000e9       data     static slong2fs.asm
                  r0x1005   0x0000ea       data     static slong2fs.asm
        _c_interrupt_00EB   0x0000eb    program     static build/default/production/interrupt.asm
                  r0x1006   0x0000eb       data     static slong2fs.asm
                  r0x1007   0x0000ec       data     static slong2fs.asm
                  r0x1000   0x0000ed       data     static build/default/production/adc.asm
                  r0x1001   0x0000ee       data     static build/default/production/adc.asm
                  r0x1002   0x0000ef       data     static build/default/production/adc.asm
        _c_interrupt_00FD   0x0000fd    program     static build/default/production/interrupt.asm
                  _WDTCON   0x000105       data     extern pic16f88.asm
              _WDTCONbits   0x000105       data     extern pic16f88.asm
               _00164_DS_   0x00010a    program     static build/default/production/interrupt.asm
                  _EEDATA   0x00010c       data     extern pic16f88.asm
                   _EEADR   0x00010d       data     extern pic16f88.asm
                  _EEDATH   0x00010e       data     extern pic16f88.asm
                  _EEADRH   0x00010f       data     extern pic16f88.asm
                  r0x100A   0x000110       data     static build/default/production/interrupt.asm
                  r0x1009   0x000111       data     static build/default/production/interrupt.asm
                  r0x1008   0x000112       data     static build/default/production/interrupt.asm
               _00128_DS_   0x000113    program     static build/default/production/interrupt.asm
                  r0x100B   0x000113       data     static build/default/production/interrupt.asm
                  r0x100C   0x000114       data     static build/default/production/interrupt.asm
                  r0x100E   0x000115       data     static build/default/production/interrupt.asm
                  r0x100D   0x000116       data     static build/default/production/interrupt.asm
                  r0x1001   0x000117       data     static sint2fs.asm
                  r0x1000   0x000118       data     static sint2fs.asm
                  r0x1002   0x000119       data     static sint2fs.asm
                  r0x1003   0x00011a       data     static sint2fs.asm
                  r0x1005   0x00011b       data     static sint2fs.asm
               _00165_DS_   0x00011c    program     static build/default/production/interrupt.asm
                  r0x1004   0x00011c       data     static sint2fs.asm
                  r0x1001   0x00011d       data     static build/default/production/pwm.asm
                  r0x1000   0x00011e       data     static build/default/production/pwm.asm
                  r0x1003   0x00011f       data     static build/default/production/pwm.asm
                  r0x1002   0x000120       data     static build/default/production/pwm.asm
                  r0x1003   0x000121       data     static fs2sint.asm
                  r0x1002   0x000122       data     static fs2sint.asm
                  r0x1001   0x000123       data     static fs2sint.asm
               _00132_DS_   0x000124    program     static build/default/production/interrupt.asm
                  r0x1000   0x000124       data     static fs2sint.asm
                  _ciclos   0x000125       data     static build/default/production/interrupt.asm
              _adc_result   0x000127       data     static build/default/production/interrupt.asm
               _pwm_valor   0x000129       data     static build/default/production/interrupt.asm
               _adc_canal   0x00012b       data     static build/default/production/interrupt.asm
        ___sdcc_saved_fsr   0x00012c       data     extern shadowregs.asm
             _force_cinit   0x00012d       data     static idata.asm
               _00003_DS_   0x00014b    program     static build/default/production/interrupt.asm
               _00004_DS_   0x000150    program     static build/default/production/interrupt.asm
               _00005_DS_   0x000166    program     static build/default/production/interrupt.asm
               _00006_DS_   0x00016b    program     static build/default/production/interrupt.asm
        _c_interrupt_0170   0x000170    program     static build/default/production/interrupt.asm
               _00134_DS_   0x000171    program     static build/default/production/interrupt.asm
                  _EECON1   0x00018c       data     extern pic16f88.asm
              _EECON1bits   0x00018c       data     extern pic16f88.asm
                  _EECON2   0x00018d       data     extern pic16f88.asm
               _00136_DS_   0x000192    program     static build/default/production/interrupt.asm
               _00007_DS_   0x0001bd    program     static build/default/production/interrupt.asm
               _00008_DS_   0x0001c0    program     static build/default/production/interrupt.asm
               _00138_DS_   0x0001cb    program     static build/default/production/interrupt.asm
               _00141_DS_   0x0001e9    program     static build/default/production/interrupt.asm
         END_OF_INTERRUPT   0x0001f6    program     static build/default/production/interrupt.asm
                 ___fsmul   0x0001f7    program     extern fsmul.asm
               _00105_DS_   0x000270    program     static fsmul.asm
               _00106_DS_   0x000278    program     static fsmul.asm
         _code_fsmul_01D0   0x0003c7    program     static fsmul.asm
         _code_fsmul_0224   0x00041b    program     static fsmul.asm
         _code_fsmul_028A   0x000481    program     static fsmul.asm
               _00109_DS_   0x0004b8    program     static fsmul.asm
               _00110_DS_   0x0004c7    program     static fsmul.asm
               _00141_DS_   0x0004d1    program     static fsmul.asm
               _00119_DS_   0x0004de    program     static fsmul.asm
               _00120_DS_   0x0004e4    program     static fsmul.asm
               _00115_DS_   0x000500    program     static fsmul.asm
               _00112_DS_   0x00050e    program     static fsmul.asm
               _00121_DS_   0x00051a    program     static fsmul.asm
               _00122_DS_   0x000520    program     static fsmul.asm
               _00116_DS_   0x000558    program     static fsmul.asm
               _00117_DS_   0x000577    program     static fsmul.asm
                  ___fslt   0x000578    program     extern fslt.asm
               _00126_DS_   0x000631    program     static fslt.asm
               _00106_DS_   0x000635    program     static fslt.asm
               _00108_DS_   0x000637    program     static fslt.asm
               _00127_DS_   0x000679    program     static fslt.asm
               _00111_DS_   0x00067d    program     static fslt.asm
               _00112_DS_   0x00067e    program     static fslt.asm
              ___fs2ulong   0x00067f    program     extern fs2ulong.asm
               _00105_DS_   0x0006dc    program     static fs2ulong.asm
               _00106_DS_   0x0006e4    program     static fs2ulong.asm
               _00113_DS_   0x000749    program     static fs2ulong.asm
               _00115_DS_   0x000753    program     static fs2ulong.asm
               _00116_DS_   0x000754    program     static fs2ulong.asm
               _00114_DS_   0x00075d    program     static fs2ulong.asm
               _00108_DS_   0x000766    program     static fs2ulong.asm
              ___fs2slong   0x000767    program     extern fs2slong.asm
               _00106_DS_   0x00077d    program     static fs2slong.asm
      _code_fs2slong_002A   0x000791    program     static fs2slong.asm
      _code_fs2slong_0042   0x0007a9    program     static fs2slong.asm
               _00108_DS_   0x0007c7    program     static fs2slong.asm
      _code_fs2slong_006C   0x0007d3    program     static fs2slong.asm
               _00110_DS_   0x0007e4    program     static fs2slong.asm
              _ports_init   0x0007e5    program     extern build/default/production/ports.asm
             _timer_start   0x0007f2    program     extern build/default/production/timer.asm
              _timer_init   0x0007f6    program     extern build/default/production/timer.asm
                 ___fsadd   0x000800    program     extern fsadd.asm
               _00106_DS_   0x00087f    program     static fsadd.asm
               _00108_DS_   0x0008bd    program     static fsadd.asm
               _00179_DS_   0x00091a    program     static fsadd.asm
               _00110_DS_   0x00093c    program     static fsadd.asm
               _00180_DS_   0x00094f    program     static fsadd.asm
               _00112_DS_   0x000971    program     static fsadd.asm
               _00114_DS_   0x0009d1    program     static fsadd.asm
               _00116_DS_   0x0009fb    program     static fsadd.asm
               _00181_DS_   0x000a07    program     static fsadd.asm
               _00182_DS_   0x000a19    program     static fsadd.asm
               _00184_DS_   0x000a26    program     static fsadd.asm
               _00185_DS_   0x000a27    program     static fsadd.asm
               _00183_DS_   0x000a30    program     static fsadd.asm
               _00118_DS_   0x000a31    program     static fsadd.asm
               _00186_DS_   0x000a41    program     static fsadd.asm
               _00188_DS_   0x000a4e    program     static fsadd.asm
               _00189_DS_   0x000a4f    program     static fsadd.asm
               _00187_DS_   0x000a58    program     static fsadd.asm
               _00119_DS_   0x000a5e    program     static fsadd.asm
               _00123_DS_   0x000a84    program     static fsadd.asm
               _00125_DS_   0x000a94    program     static fsadd.asm
               _00130_DS_   0x000aae    program     static fsadd.asm
               _00129_DS_   0x000ac5    program     static fsadd.asm
               _00132_DS_   0x000ad2    program     static fsadd.asm
               _00133_DS_   0x000b38    program     static fsadd.asm
              ___ulong2fs   0x000b39    program     extern ulong2fs.asm
               _00119_DS_   0x000b4f    program     static ulong2fs.asm
               _00107_DS_   0x000b54    program     static ulong2fs.asm
               _00110_DS_   0x000b63    program     static ulong2fs.asm
               _00124_DS_   0x000b75    program     static ulong2fs.asm
               _00114_DS_   0x000b9d    program     static ulong2fs.asm
               _00115_DS_   0x000beb    program     static ulong2fs.asm
                __mullong   0x000bec    program     extern _mullong.asm
               _00119_DS_   0x000c03    program     static _mullong.asm
               _00109_DS_   0x000c15    program     static _mullong.asm
               _00112_DS_   0x000c35    program     static _mullong.asm
               _00115_DS_   0x000c55    program     static _mullong.asm
               _00114_DS_   0x000c74    program     static _mullong.asm
    __sdcc_gsinit_startup   0x000c9b    program     extern idata.asm
         _code_idata_0008   0x000ca3    program     static idata.asm
               _00108_DS_   0x000cae    program     static idata.asm
         _code_idata_0030   0x000ccb    program     static idata.asm
         _code_idata_003F   0x000cda    program     static idata.asm
         _code_idata_0057   0x000cf2    program     static idata.asm
               _00105_DS_   0x000cfb    program     static idata.asm
         _code_idata_0076   0x000d11    program     static idata.asm
               _00107_DS_   0x000d2c    program     static idata.asm
               _00110_DS_   0x000d33    program     static idata.asm
              ___slong2fs   0x000d37    program     extern slong2fs.asm
      _code_slong2fs_0027   0x000d5e    program     static slong2fs.asm
               _00106_DS_   0x000d76    program     static slong2fs.asm
      _code_slong2fs_004B   0x000d82    program     static slong2fs.asm
               _00108_DS_   0x000d93    program     static slong2fs.asm
               ___fs2sint   0x000d94    program     extern fs2sint.asm
       _code_fs2sint_0012   0x000da6    program     static fs2sint.asm
               _00117_DS_   0x000dc0    program     static fs2sint.asm
               _00106_DS_   0x000dc6    program     static fs2sint.asm
               _00118_DS_   0x000dd7    program     static fs2sint.asm
               _00108_DS_   0x000ddd    program     static fs2sint.asm
               _00109_DS_   0x000de2    program     static fs2sint.asm
              _pwm_output   0x000de3    program     extern build/default/production/pwm.asm
               _00001_DS_   0x000e05    program     static build/default/production/pwm.asm
               _00002_DS_   0x000e0a    program     static build/default/production/pwm.asm
               _00003_DS_   0x000e1d    program     static build/default/production/pwm.asm
               _00004_DS_   0x000e22    program     static build/default/production/pwm.asm
                _pwm_init   0x000e23    program     extern build/default/production/pwm.asm
 _interrupt_global_enable   0x000e2f    program     extern build/default/production/interrupt.asm
_interrupt_peripheral_enable   0x000e33    program     extern build/default/production/interrupt.asm
  _interrupt_timer_enable   0x000e37    program     extern build/default/production/interrupt.asm
    _interrupt_adc_enable   0x000e46    program     extern build/default/production/interrupt.asm
_interrupt_external_enable   0x000e55    program     extern build/default/production/interrupt.asm
                __gptrget   0x000e6d    program     extern /home/sdcc-builder/build/sdcc-build/orig/sdcc/device/lib/pic14/libsdcc/regular/_gptrget1.S
               __gptrget1   0x000e6d    program     extern /home/sdcc-builder/build/sdcc-build/orig/sdcc/device/lib/pic14/libsdcc/regular/_gptrget1.S
            __dataptrget1   0x000e74    program     static /home/sdcc-builder/build/sdcc-build/orig/sdcc/device/lib/pic14/libsdcc/regular/_gptrget1.S
            __codeptrget1   0x000e7b    program     extern /home/sdcc-builder/build/sdcc-build/orig/sdcc/device/lib/pic14/libsdcc/regular/_gptrget1.S
               __gptrget2   0x000e80    program     extern /home/sdcc-builder/build/sdcc-build/orig/sdcc/device/lib/pic14/libsdcc/regular/_gptrget2.S
            __dataptrget2   0x000e88    program     static /home/sdcc-builder/build/sdcc-build/orig/sdcc/device/lib/pic14/libsdcc/regular/_gptrget2.S
            __codeptrget2   0x000e92    program     static /home/sdcc-builder/build/sdcc-build/orig/sdcc/device/lib/pic14/libsdcc/regular/_gptrget2.S
               _adc_start   0x000ea1    program     extern build/default/production/adc.asm
               _00118_DS_   0x000eac    program     static build/default/production/adc.asm
               _00119_DS_   0x000eb0    program     static build/default/production/adc.asm
                _adc_init   0x000eb5    program     extern build/default/production/adc.asm
                   _delay   0x000ec0    program     extern build/default/production/adc.asm
               _00108_DS_   0x000ec4    program     static build/default/production/adc.asm
               ___sint2fs   0x000ece    program     extern sint2fs.asm
       _code_sint2fs_0016   0x000ee4    program     static sint2fs.asm
                   _cinit   0x000ef6    program     extern 
                    _main   0x000f1c    program     extern build/default/production/main.asm
          _code_main_0006   0x000f22    program     static build/default/production/main.asm
          _code_main_0009   0x000f25    program     static build/default/production/main.asm
          _code_main_000C   0x000f28    program     static build/default/production/main.asm
          _code_main_000F   0x000f2b    program     static build/default/production/main.asm
          _code_main_0012   0x000f2e    program     static build/default/production/main.asm
          _code_main_0015   0x000f31    program     static build/default/production/main.asm
          _code_main_0018   0x000f34    program     static build/default/production/main.asm
          _code_main_001B   0x000f37    program     static build/default/production/main.asm
          _code_main_001E   0x000f3a    program     static build/default/production/main.asm
          _code_main_0021   0x000f3d    program     static build/default/production/main.asm
               _00107_DS_   0x000f3e    program     static build/default/production/main.asm


